; Function Attrs: mustprogress uwtable
define noundef zeroext i8 @_ZN4File7GetByteEv(ptr noundef nonnull align 8 dereferenceable(8256) %0) local_unnamed_addr #2 align 2 {
  %2 = alloca i8, align 1
  store i8 0, ptr %2, align 1
  %3 = load ptr, ptr %0, align 8
  %4 = getelementptr inbounds i8, ptr %3, i64 32
  %5 = load ptr, ptr %4, align 8
  %6 = call noundef i32 %5(ptr noundef nonnull align 8 dereferenceable(8256) %0, ptr noundef nonnull %2, i64 noundef 1)
  %7 = load i8, ptr %2, align 1
  ret i8 %7
}